(dp1
S'23435'
p2
c__builtin__
frozenset
p3
((lp4
S''
aVnucleus
p5
atRp6
sS'164127'
p7
g3
((lp8
S''
atRp9
sS'79982'
p10
g3
((lp11
S''
aVintegral to membrane
p12
aVmembrane
p13
atRp14
sS'9360'
p15
g3
((lp16
S''
aVnuclear matrix
p17
aVnucleoplasm
p18
aVcytoplasm
p19
aVnuclear speck
p20
aVnucleus
p21
atRp22
sS'11052'
p23
g3
((lp24
S''
aVribonucleoprotein complex
p25
aVmRNA cleavage factor complex
p26
aVnucleus
p27
aVparaspeckles
p28
atRp29
sS'55692'
p30
g3
((lp31
S''
aVnucleus
p32
atRp33
sS'5725'
p34
g3
((lp35
Vnucleoplasm
p36
aVheterogeneous nuclear ribonucleoprotein complex
p37
aVnucleolus
p38
aVnucleus
p39
aS''
atRp40
sS'10346'
p41
g3
((lp42
S''
aVCajal body
p43
aVGolgi apparatus
p44
aVcytoplasm
p45
aVintracellular
p46
aVnuclear speck
p47
aVintracellular membrane-bounded organelle
p48
atRp49
sS'64976'
p50
g3
((lp51
S''
aVribonucleoprotein complex
p52
aVribosome
p53
aVnucleus
p54
aVmitochondrion
p55
aVmitochondrial ribosome
p56
atRp57
sS'3550'
p58
g3
((lp59
S''
aVnucleus
p60
atRp61
sS'7050'
p62
g3
((lp63
S''
aVnucleus
p64
atRp65
sS'2962'
p66
g3
((lp67
Vnucleoplasm
p68
aS''
aVnucleus
p69
aVtranscription factor TFIIF complex
p70
aVcell junction
p71
atRp72
sS'152877'
p73
g3
((lp74
S''
aVnucleus
p75
atRp76
sS'80028'
p77
g3
((lp78
S''
atRp79
sS'23567'
p80
g3
((lp81
S''
aVcytoplasm
p82
aVintracellular
p83
aVnucleus
p84
aVnucleolus
p85
atRp86
sS'8498'
p87
g3
((lp88
S''
aVcytoplasm
p89
aVnucleus
p90
atRp91
sS'6839'
p92
g3
((lp93
S''
aVchromosome, centromeric region
p94
aVcondensed nuclear chromosome
p95
aVheterochromatin
p96
aVrDNA heterochrom
p97
aVnucleus
p98
aVchromatin silencing complex
p99
aVchromosome
p100
atRp101
sS'8227'
p102
g3
((lp103
S''
atRp104
sS'202051'
p105
g3
((lp106
Vnucleoplasm
p107
aVcytoplasm
p108
aVnucleolus
p109
aVnucleus
p110
aS''
atRp111
sS'55900'
p112
g3
((lp113
S''
aVintracellular
p114
aVnucleus
p115
atRp116
sS'4234'
p117
g3
((lp118
Vintracellular membrane-bounded organelle
p119
aVcytoplasm
p120
aVnucleus
p121
aS''
atRp122
sS'139212'
p123
g3
((lp124
S''
atRp125
sS'80726'
p126
g3
((lp127
Vmitochondrion
p128
aS''
atRp129
sS'64376'
p130
g3
((lp131
S''
aVintracellular
p132
aVnucleus
p133
atRp134
sS'114034'
p135
g3
((lp136
S''
aVnucleus
p137
aVnuclear speck
p138
atRp139
sS'11103'
p140
g3
((lp141
Vribonucleoprotein complex
p142
aVcytoplasm
p143
aVnucleolus
p144
aVnucleus
p145
aS''
atRp146
sS'553115'
p147
g3
((lp148
S''
aVcytoplasm
p149
aVmembrane
p150
atRp151
sS'83786'
p152
g3
((lp153
S''
atRp154
sS'83463'
p155
g3
((lp156
S''
aVnucleus
p157
atRp158
sS'728929'
p159
g3
((lp160
S''
aVnucleus
p161
aVintegral to membrane
p162
atRp163
sS'84549'
p164
g3
((lp165
S''
aVnucleus
p166
atRp167
sS'84524'
p168
g3
((lp169
S''
aVnucleus
p170
atRp171
sS'25776'
p172
g3
((lp173
Vmicrotubule basal body
p174
aS''
aVGolgi apparatus
p175
aVnuclear speck
p176
aVnucleus
p177
aVtrans-Golgi network
p178
atRp179
sS'653140'
p180
g3
((lp181
S''
atRp182
sS'58499'
p183
g3
((lp184
S''
aVintracellular
p185
aVnucleus
p186
atRp187
sS'391257'
p188
g3
((lp189
S''
atRp190
sS'51514'
p191
g3
((lp192
S''
aVCul4B-RING ubiquitin ligase complex
p193
aVCul4A-RING ubiquitin ligase complex
p194
aVcytoplasm
p195
aVmicrotubule organizing center
p196
aVnucleus
p197
aVnuclear membrane
p198
aVmembrane
p199
aVcytoskeleton
p200
aVcentrosome
p201
atRp202
sS'10432'
p203
g3
((lp204
Vribonucleoprotein complex
p205
aVtranscription factor complex
p206
aVnucleus
p207
aS''
aVmediator complex
p208
atRp209
sS'342132'
p210
g3
((lp211
S''
aVintracellular
p212
aVnucleus
p213
atRp214
sS'4800'
p215
g3
((lp216
S''
aVnucleus
p217
aVCCAAT-binding factor complex
p218
atRp219
sS'84324'
p220
g3
((lp221
S''
aVnucleus
p222
atRp223
sS'79723'
p224
g3
((lp225
S''
aVchromosome, centromeric region
p226
aVchromatin
p227
aVchromosome
p228
aVnuclear heterochromatin
p229
atRp230
sS'55135'
p231
g3
((lp232
Vtelomerase holoenzyme complex
p233
aVCajal body
p234
aVnucleus
p235
aS''
aVcytoplasm
p236
atRp237
sS'79802'
p238
g3
((lp239
Vextracellular region
p240
aS''
atRp241
sS'55954'
p242
g3
((lp243
S''
aVcytoplasm
p244
aVnucleus
p245
aVspliceosomal complex
p246
aVU12-type spliceosomal complex
p247
atRp248
sS'9679'
p249
g3
((lp250
S''
aVcellular_component
p251
atRp252
sS'146542'
p253
g3
((lp254
S''
aVnucleus
p255
aVintracellular
p256
aVcellular_component
p257
atRp258
sS'84733'
p259
g3
((lp260
S''
aVPcG protein complex
p261
aVnucleus
p262
aVPRC1 complex
p263
aVheterochromatin
p264
atRp265
sS'5684'
p266
g3
((lp267
S''
aVnucleoplasm
p268
aVcytoplasm
p269
aVproteasome complex
p270
aVproteasome core complex
p271
aVnucleus
p272
aVcytosol
p273
atRp274
sS'170261'
p275
g3
((lp276
S''
aVabove
p277
atRp278
sS'79891'
p279
g3
((lp280
S''
aVintracellular
p281
aVnucleus
p282
atRp283
sS'9721'
p284
g3
((lp285
S''
atRp286
sS'55758'
p287
g3
((lp288
S''
aVnucleus
p289
atRp290
sS'23254'
p291
g3
((lp292
S''
atRp293
sS'23543'
p294
g3
((lp295
S''
aVcytoplasm
p296
aVnucleus
p297
atRp298
sS'9314'
p299
g3
((lp300
Vnuclear chromatin
p301
aS''
aVintracellular
p302
aVnucleus
p303
atRp304
sS'144203'
p305
g3
((lp306
Vextracellular region
p307
aS''
atRp308
sS'64219'
p309
g3
((lp310
S''
aVcytoplasm
p311
atRp312
sS'25970'
p313
g3
((lp314
Vcytosol
p315
aVcytoplasm
p316
aVnucleus
p317
aS''
aVmembrane
p318
atRp319
sS'149628'
p320
g3
((lp321
Vnucleoplasm
p322
aS''
aVnucleus
p323
aVnuclear speck
p324
atRp325
sS'146310'
p326
g3
((lp327
S''
aVcytoplasm
p328
aVnucleus
p329
atRp330
sS'55269'
p331
g3
((lp332
S''
aVnucleolus
p333
aVnuclear matrix
p334
aVnucleoplasm
p335
aVcytoplasm
p336
aVnucleus
p337
aVparaspeckles
p338
atRp339
sS'10656'
p340
g3
((lp341
S''
aVnucleus
p342
atRp343
sS'331'
p344
g3
((lp345
Vcytosol
p346
aVcytoplasm
p347
aVintracellular
p348
aVnucleus
p349
aS''
atRp350
sS'79576'
p351
g3
((lp352
S''
aVcytoplasm
p353
aVnucleus
p354
atRp355
sS'151613'
p356
g3
((lp357
S''
atRp358
sS'81565'
p359
g3
((lp360
Vkinetochore
p361
aVchromosome, centromeric region
p362
aVnuclear envelope
p363
aVcytosol
p364
aVcytoplasm
p365
aVkinesin complex
p366
aVcondensed chromosome kinetochore
p367
aVmicrotubule organizing center
p368
aVaxon
p369
aVmicrotubule
p370
aVmicrotubule associated complex
p371
aVcytoskeleton
p372
aVcell body
p373
aVspindle
p374
aVcell leading edge
p375
aVcentrosome
p376
aVchromosome
p377
atRp378
sS'9877'
p379
g3
((lp380
S''
atRp381
sS'151871'
p382
g3
((lp383
S''
aVnucleus
p384
atRp385
sS'7090'
p386
g3
((lp387
S''
aVnucleus
p388
atRp389
sS'84811'
p390
g3
((lp391
S''
aVRES complex
p392
atRp393
sS'4747'
p394
g3
((lp395
S''
aVcytosol
p396
aVneurofilament
p397
aVaxon
p398
aVTSC1-TSC2 complex
p399
aVintermediate filament
p400
atRp401
sS'25983'
p402
g3
((lp403
S''
aVcytoplasm
p404
aVaxon
p405
aVdendrite
p406
aVnucleus
p407
aVfilopodium
p408
aVcell projection
p409
atRp410
sS'7690'
p411
g3
((lp412
S''
aVintracellular
p413
aVnucleus
p414
atRp415
sS'54819'
p416
g3
((lp417
S''
atRp418
sS'55311'
p419
g3
((lp420
S''
aVintracellular
p421
aVnucleus
p422
atRp423
sS'84619'
p424
g3
((lp425
S''
aVnucleus
p426
atRp427
sS'26036'
p428
g3
((lp429
S''
aVintracellular
p430
aVnucleus
p431
atRp432
sS'126133'
p433
g3
((lp434
S''
atRp435
sS'51224'
p436
g3
((lp437
S''
aVnucleus
p438
aVintegral to membrane
p439
atRp440
sS'79643'
p441
g3
((lp442
S''
aVendosome
p443
aVcytosol
p444
aVendosome membrane
p445
aVlate endosome membrane
p446
aVmembrane
p447
atRp448
sS'2623'
p449
g3
((lp450
S''
aVnucleolus
p451
aVnucleoplasm
p452
aVtranscriptional repressor complex
p453
aVnucleus
p454
aVnuclear membrane
p455
aVtranscription factor complex
p456
atRp457
sS'3609'
p458
g3
((lp459
S''
aVnucleolus
p460
aVribonucleoprotein complex
p461
aVcytoplasm
p462
aVintracellular
p463
aVnucleus
p464
aVmitochondrion
p465
atRp466
sS'55272'
p467
g3
((lp468
S''
aVribonucleoprotein complex
p469
aVnucleolus
p470
aVnucleus
p471
atRp472
sS'8379'
p473
g3
((lp474
Vkinetochore
p475
aVchromosome, centromeric region
p476
aS''
aVcytoskeleton
p477
aVcytosol
p478
aVcytoplasm
p479
aVcondensed chromosome kinetochore
p480
aVmicrotubule organizing center
p481
aVnucleus
p482
aVnuclear pore
p483
aVmitochondrion
p484
aVspindle
p485
aVactin cytoskeleton
p486
aVcentrosome
p487
aVchromosome
p488
atRp489
sS'6613'
p490
g3
((lp491
S''
aVnucleus
p492
atRp493
sS'83861'
p494
g3
((lp495
S''
atRp496
sS'84823'
p497
g3
((lp498
S''
aVlamin filament
p499
aVnuclear inner membrane
p500
aVnucleus
p501
aVmembrane
p502
aVnuclear lamina
p503
aVintermediate filament
p504
atRp505
sS'6615'
p506
g3
((lp507
S''
aVcytoplasm
p508
aVintracellular
p509
aVnucleus
p510
atRp511
sS'200845'
p512
g3
((lp513
S''
atRp514
sS'1912'
p515
g3
((lp516
S''
aVPcG protein complex
p517
aVnucleus
p518
aVPRC1 complex
p519
atRp520
sS'55783'
p521
g3
((lp522
S''
aVintegral to membrane
p523
aVmembrane
p524
atRp525
sS'143384'
p526
g3
((lp527
S''
aVcullin-RING ubiquitin ligase complex
p528
atRp529
sS'129807'
p530
g3
((lp531
S''
aVlysosomal lumen
p532
aVlysosome
p533
aVorganelle inner membrane
p534
aVmembrane
p535
aVmitochondrion
p536
atRp537
sS'55068'
p538
g3
((lp539
S''
aVextracellular space
p540
aVextracellular regio
p541
aVplasma membrane
p542
aVmembrane
p543
atRp544
sS'10921'
p545
g3
((lp546
S''
aVnucleoplasm
p547
aVcytoplasm
p548
aVnuclear speck
p549
aVcytosol
p550
aVnucleus
p551
aVexon-exon junction complex
p552
atRp553
sS'55147'
p554
g3
((lp555
S''
aVnucleus
p556
atRp557
sS'283899'
p558
g3
((lp559
S''
aVIno80 complex
p560
aVnucleolus
p561
aVnucleus
p562
atRp563
sS'2355'
p564
g3
((lp565
S''
aVnucleus
p566
atRp567
sS'339745'
p568
g3
((lp569
S''
aVnucleus
p570
atRp571
sS'57018'
p572
g3
((lp573
S''
aVnucleus
p574
aVnuclear speck
p575
atRp576
sS'202559'
p577
g3
((lp578
S''
aVnucleus
p579
atRp580
sS'79654'
p581
g3
((lp582
S''
aVcytoplasm
p583
aVintracellular
p584
aVnucleus
p585
aVperinuclear region of cytoplasm
p586
atRp587
sS'79091'
p588
g3
((lp589
S''
atRp590
sS'57541'
p591
g3
((lp592
S''
aVintracellular
p593
aVnucleus
p594
atRp595
sS'143684'
p596
g3
((lp597
S''
atRp598
sS'10474'
p599
g3
((lp600
S''
aVAda2/Gcn5/Ada3 transcription activator complex
p601
aVSTAGA complex
p602
aVintracellular
p603
aVnucleus
p604
aVtranscription factor TFTC complex
p605
atRp606
sS'9753'
p607
g3
((lp608
S''
aVintracellular
p609
aVnucleus
p610
atRp611
sS'1196'
p612
g3
((lp613
S''
aVnucleus
p614
aVnuclear speck
p615
atRp616
sS'84838'
p617
g3
((lp618
S''
aVnuclear body
p619
aVintracellular
p620
aVnucleus
p621
atRp622
sS'81788'
p623
g3
((lp624
S''
atRp625
sS'24144'
p626
g3
((lp627
S''
aVcatalytic step 2 spliceosome
p628
aVcytoplasm
p629
aVspliceosomal complex
p630
aVnuclear speck
p631
aVnucleus
p632
aVproteinaceous extracellular matrix
p633
atRp634
sS'58155'
p635
g3
((lp636
S''
aVnucleus
p637
aVspliceosomal complex
p638
atRp639
sS'29108'
p640
g3
((lp641
S''
aVcytosol
p642
aVcytoplasm
p643
aVintracellular
p644
aVcytoplasmic part
p645
aVIkappaB kinase complex
p646
atRp647
sS'5450'
p648
g3
((lp649
S''
aVnucleus
p650
atRp651
sS'4001'
p652
g3
((lp653
S''
aVnuclear envelope
p654
aVlamin filament
p655
aVnuclear matrix
p656
aVnucleoplasm
p657
aVmembrane
p658
aVnucleus
p659
aVnuclear inner membrane
p660
aVintermediate filament
p661
atRp662
sS'11179'
p663
g3
((lp664
S''
aVintracellular
p665
aVnucleus
p666
atRp667
sS'57654'
p668
g3
((lp669
S''
atRp670
sS'79848'
p671
g3
((lp672
S''
aVmicrotubule
p673
aVcytoplasm
p674
aVcytoskeleton
p675
aVmicrotubule organizing center
p676
aVcentrosome
p677
aVspindle
p678
aVspindle pole
p679
atRp680
sS'339834'
p681
g3
((lp682
S''
atRp683
sS'84248'
p684
g3
((lp685
Vnucleoplasm
p686
aS''
aVnucleus
p687
aVnuclear speck
p688
atRp689
sS'8061'
p690
g3
((lp691
S''
aVsynaptosome
p692
aVcytosol
p693
aVmicrosome
p694
aVpresynaptic membrane
p695
aVnucleus
p696
atRp697
sS'51083'
p698
g3
((lp699
S''
aVGolgi apparatus
p700
aVextracellular region
p701
aVcytoplasm
p702
aVcellular_component
p703
aVsecretory granule
p704
atRp705
sS'51329'
p706
g3
((lp707
S''
aVnucleus
p708
atRp709
sS'7746'
p710
g3
((lp711
S''
aVintracellular
p712
aVnucleus
p713
atRp714
sS'22890'
p715
g3
((lp716
S''
aVintracellular
p717
aVnucleus
p718
atRp719
sS'57410'
p720
g3
((lp721
S''
aVendoplasmic reticulum-Golgi intermediate compartment
p722
aVGolgi apparatus
p723
aVCOPI vesicle coat
p724
aVcytoplasm
p725
aVcis-Golgi network
p726
aVmicrotubule organizing center
p727
aVnucleus
p728
aVcytoskeleton
p729
atRp730
sS'8161'
p731
g3
((lp732
Vnucleoplasm
p733
aVCajal body
p734
aVnucleolus
p735
aVnucleus
p736
aS''
atRp737
sS'129831'
p738
g3
((lp739
S''
aVcytoplasm
p740
aVnucleus
p741
atRp742
sS'55840'
p743
g3
((lp744
S''
aVnucleus
p745
aVnuclear speck
p746
atRp747
sS'222698'
p748
g3
((lp749
S''
atRp750
sS'164592'
p751
g3
((lp752
S''
atRp753
sS'9441'
p754
g3
((lp755
Vnucleoplasm
p756
aS''
aVnucleus
p757
aVmediator complex
p758
atRp759
sS'11047'
p760
g3
((lp761
S''
aVcytoplasm
p762
aVmembrane fraction
p763
aVproteasome complex
p764
aVnucleus
p765
aVintegral to plasma membrane
p766
aVplasma membrane
p767
atRp768
sS'7572'
p769
g3
((lp770
S''
aVintracellular
p771
aVnucleus
p772
atRp773
sS'129138'
p774
g3
((lp775
S''
aVcytoplasm
p776
aVnucleus
p777
aVmidbody
p778
atRp779
sS'23199'
p780
g3
((lp781
S''
atRp782
sS'84878'
p783
g3
((lp784
S''
aVintracellular
p785
aVnucleus
p786
atRp787
sS'6632'
p788
g3
((lp789
S''
aVnucleoplasm
p790
aVcytoplasm
p791
aVspliceosomal complex
p792
aVU12-type spliceosomal complex
p793
aVcytosol
p794
aVnucleus
p795
atRp796
sS'6635'
p797
g3
((lp798
S''
aVribonucleoprotein complex
p799
aVsmall nuclear ribonucleoprotein complex
p800
aVnucleoplasm
p801
aVcatalytic step 2 spliceosome
p802
aVspliceosomal complex
p803
aVU12-type spliceosomal complex
p804
aVU7 snRNP
p805
aVnucleus
p806
aVcytosol
p807
atRp808
sS'85376'
p809
g3
((lp810
S''
atRp811
sS'4154'
p812
g3
((lp813
S''
aVcytoplasm
p814
aVcytoplasmic stress granule
p815
aVnucleus
p816
atRp817
sS'9295'
p818
g3
((lp819
Vnucleoplasm
p820
aS''
aVnucleus
p821
atRp822
sS'4665'
p823
g3
((lp824
S''
aVnucleus
p825
atRp826
sS'7586'
p827
g3
((lp828
Vmitochondrion
p829
aS''
aVintracellular
p830
aVnucleus
p831
atRp832
sS'27296'
p833
g3
((lp834
S''
aVcytoplasm
p835
aVintracellular
p836
aVnucleus
p837
atRp838
sS'2353'
p839
g3
((lp840
Vhost cell nucleus
p841
aS''
atRp842
sS'3104'
p843
g3
((lp844
S''
aVcytoplasm
p845
aVintracellular
p846
aVnucleus
p847
atRp848
sS'64949'
p849
g3
((lp850
Vmitochondrion
p851
aS''
aVribosome
p852
aVmitochondrial small ribosomal subunit
p853
aVribonucleoprotein complex
p854
atRp855
sS'8761'
p856
g3
((lp857
S''
aVcytoplasm
p858
aVribonucleoprotein complex
p859
atRp860
sS'5932'
p861
g3
((lp862
S''
aVnucleus
p863
aVtranscriptional repressor complex
p864
atRp865
sS'54904'
p866
g3
((lp867
S''
aVnucleus
p868
aVchromosome
p869
atRp870
s.