(dp1
S''
c__builtin__
frozenset
p2
((lp3
S''
atRp4
sS'6615'
p5
g2
((lp6
S''
aVcytoplasm
p7
aVintracellular
p8
aVnucleus
p9
atRp10
sS'164127'
p11
g2
((lp12
S''
atRp13
sS'57654'
p14
g2
((lp15
S''
atRp16
sS'79982'
p17
g2
((lp18
S''
aVintegral to membrane
p19
aVmembrane
p20
atRp21
sS'9360'
p22
g2
((lp23
S''
aVnuclear matrix
p24
aVnucleoplasm
p25
aVcytoplasm
p26
aVnuclear speck
p27
aVnucleus
p28
atRp29
sS'11052'
p30
g2
((lp31
S''
aVribonucleoprotein complex
p32
aVmRNA cleavage factor complex
p33
aVnucleus
p34
aVparaspeckles
p35
atRp36
sS'55692'
p37
g2
((lp38
S''
aVnucleus
p39
atRp40
sS'5725'
p41
g2
((lp42
Vnucleoplasm
p43
aVheterogeneous nuclear ribonucleoprotein complex
p44
aVnucleolus
p45
aVnucleus
p46
aS''
atRp47
sS'23567'
p48
g2
((lp49
S''
aVcytoplasm
p50
aVintracellular
p51
aVnucleus
p52
aVnucleolus
p53
atRp54
sS'64976'
p55
g2
((lp56
S''
aVribonucleoprotein complex
p57
aVribosome
p58
aVnucleus
p59
aVmitochondrion
p60
aVmitochondrial ribosome
p61
atRp62
sS'3550'
p63
g2
((lp64
S''
aVnucleus
p65
atRp66
sS'1535'
p67
g2
((lp68
S''
aVphagocytic vesicle membrane
p69
aVGolgi apparatus
p70
aVNADPH oxidase complex
p71
aVcytoplasm
p72
aVapical plasma membrane
p73
aVneuronal cell body
p74
aVdendrite
p75
aVsecretory granule
p76
aVmembrane
p77
aVmitochondrion
p78
atRp79
sS'7050'
p80
g2
((lp81
S''
aVnucleus
p82
atRp83
sS'2962'
p84
g2
((lp85
Vnucleoplasm
p86
aS''
aVnucleus
p87
aVtranscription factor TFIIF complex
p88
aVcell junction
p89
atRp90
sS'152877'
p91
g2
((lp92
S''
aVnucleus
p93
atRp94
sS'84858'
p95
g2
((lp96
S''
aVintracellular
p97
aVnucleus
p98
atRp99
sS'80028'
p100
g2
((lp101
S''
atRp102
sS'7690'
p103
g2
((lp104
S''
aVintracellular
p105
aVnucleus
p106
atRp107
sS'8498'
p108
g2
((lp109
S''
aVcytoplasm
p110
aVnucleus
p111
atRp112
sS'6839'
p113
g2
((lp114
S''
aVchromosome, centromeric region
p115
aVcondensed nuclear chromosome
p116
aVheterochromatin
p117
aVrDNA heterochrom
p118
aVnucleus
p119
aVchromatin silencing complex
p120
aVchromosome
p121
atRp122
sS'55536'
p123
g2
((lp124
S''
aVcytoplasm
p125
aVnucleolus
p126
aVnucleus
p127
atRp128
sS'8227'
p129
g2
((lp130
S''
atRp131
sS'331'
p132
g2
((lp133
Vcytosol
p134
aVcytoplasm
p135
aVintracellular
p136
aVnucleus
p137
aS''
atRp138
sS'202051'
p139
g2
((lp140
Vnucleoplasm
p141
aVcytoplasm
p142
aVnucleolus
p143
aVnucleus
p144
aS''
atRp145
sS'55900'
p146
g2
((lp147
S''
aVintracellular
p148
aVnucleus
p149
atRp150
sS'4234'
p151
g2
((lp152
Vintracellular membrane-bounded organelle
p153
aVcytoplasm
p154
aVnucleus
p155
aS''
atRp156
sS'139212'
p157
g2
((lp158
S''
atRp159
sS'80726'
p160
g2
((lp161
Vmitochondrion
p162
aS''
atRp163
sS'64376'
p164
g2
((lp165
S''
aVintracellular
p166
aVnucleus
p167
atRp168
sS'170261'
p169
g2
((lp170
S''
aVabove
p171
atRp172
sS'114034'
p173
g2
((lp174
S''
aVnucleus
p175
aVnuclear speck
p176
atRp177
sS'11103'
p178
g2
((lp179
Vribonucleoprotein complex
p180
aVcytoplasm
p181
aVnucleolus
p182
aVnucleus
p183
aS''
atRp184
sS'553115'
p185
g2
((lp186
S''
aVcytoplasm
p187
aVmembrane
p188
atRp189
sS'83786'
p190
g2
((lp191
S''
atRp192
sS'83463'
p193
g2
((lp194
S''
aVnucleus
p195
atRp196
sS'57035'
p197
g2
((lp198
S''
atRp199
sS'728929'
p200
g2
((lp201
S''
aVnucleus
p202
aVintegral to membrane
p203
atRp204
sS'84549'
p205
g2
((lp206
S''
aVnucleus
p207
atRp208
sS'84524'
p209
g2
((lp210
S''
aVnucleus
p211
atRp212
sS'25776'
p213
g2
((lp214
Vmicrotubule basal body
p215
aS''
aVGolgi apparatus
p216
aVnuclear speck
p217
aVnucleus
p218
aVtrans-Golgi network
p219
atRp220
sS'653140'
p221
g2
((lp222
S''
atRp223
sS'58499'
p224
g2
((lp225
S''
aVintracellular
p226
aVnucleus
p227
atRp228
sS'391257'
p229
g2
((lp230
S''
atRp231
sS'51514'
p232
g2
((lp233
S''
aVCul4B-RING ubiquitin ligase complex
p234
aVCul4A-RING ubiquitin ligase complex
p235
aVcytoplasm
p236
aVmicrotubule organizing center
p237
aVnucleus
p238
aVnuclear membrane
p239
aVmembrane
p240
aVcytoskeleton
p241
aVcentrosome
p242
atRp243
sS'10432'
p244
g2
((lp245
Vribonucleoprotein complex
p246
aVtranscription factor complex
p247
aVnucleus
p248
aS''
aVmediator complex
p249
atRp250
sS'342132'
p251
g2
((lp252
S''
aVintracellular
p253
aVnucleus
p254
atRp255
sS'4800'
p256
g2
((lp257
S''
aVnucleus
p258
aVCCAAT-binding factor complex
p259
atRp260
sS'84324'
p261
g2
((lp262
S''
aVnucleus
p263
atRp264
sS'79723'
p265
g2
((lp266
S''
aVchromosome, centromeric region
p267
aVchromatin
p268
aVchromosome
p269
aVnuclear heterochromatin
p270
atRp271
sS'55135'
p272
g2
((lp273
Vtelomerase holoenzyme complex
p274
aVCajal body
p275
aVnucleus
p276
aS''
aVcytoplasm
p277
atRp278
sS'79802'
p279
g2
((lp280
Vextracellular region
p281
aS''
atRp282
sS'55954'
p283
g2
((lp284
S''
aVcytoplasm
p285
aVnucleus
p286
aVspliceosomal complex
p287
aVU12-type spliceosomal complex
p288
atRp289
sS'10346'
p290
g2
((lp291
S''
aVCajal body
p292
aVGolgi apparatus
p293
aVcytoplasm
p294
aVintracellular
p295
aVnuclear speck
p296
aVintracellular membrane-bounded organelle
p297
atRp298
sS'79607'
p299
g2
((lp300
S''
atRp301
sS'146542'
p302
g2
((lp303
S''
aVnucleus
p304
aVintracellular
p305
aVcellular_component
p306
atRp307
sS'84733'
p308
g2
((lp309
S''
aVPcG protein complex
p310
aVnucleus
p311
aVPRC1 complex
p312
aVheterochromatin
p313
atRp314
sS'5684'
p315
g2
((lp316
S''
aVnucleoplasm
p317
aVcytoplasm
p318
aVproteasome complex
p319
aVproteasome core complex
p320
aVnucleus
p321
aVcytosol
p322
atRp323
sS'6166'
p324
g2
((lp325
S''
aVcytoplasm
p326
aVribosome
p327
aVintracellular
p328
aVribonucleoprotein complex
p329
atRp330
sS'8517'
p331
g2
((lp332
S''
aVcytosol
p333
aVcytoplasm
p334
aVintracellular
p335
aVnucleus
p336
aVIkappaB kinase complex
p337
atRp338
sS'79891'
p339
g2
((lp340
S''
aVintracellular
p341
aVnucleus
p342
atRp343
sS'9721'
p344
g2
((lp345
S''
atRp346
sS'55758'
p347
g2
((lp348
S''
aVnucleus
p349
atRp350
sS'23254'
p351
g2
((lp352
S''
atRp353
sS'23543'
p354
g2
((lp355
S''
aVcytoplasm
p356
aVnucleus
p357
atRp358
sS'4841'
p359
g2
((lp360
S''
aVnuclear speck
p361
aVnucleus
p362
aVparaspeckles
p363
aVnuclear matrix
p364
atRp365
sS'9314'
p366
g2
((lp367
Vnuclear chromatin
p368
aS''
aVintracellular
p369
aVnucleus
p370
atRp371
sS'144203'
p372
g2
((lp373
Vextracellular region
p374
aS''
atRp375
sS'64219'
p376
g2
((lp377
S''
aVcytoplasm
p378
atRp379
sS'25970'
p380
g2
((lp381
Vcytosol
p382
aVcytoplasm
p383
aVnucleus
p384
aS''
aVmembrane
p385
atRp386
sS'55122'
p387
g2
((lp388
S''
aVnucleus
p389
aVtranscriptional repressor complex
p390
atRp391
sS'149628'
p392
g2
((lp393
Vnucleoplasm
p394
aS''
aVnucleus
p395
aVnuclear speck
p396
atRp397
sS'146310'
p398
g2
((lp399
S''
aVcytoplasm
p400
aVnucleus
p401
atRp402
sS'5371'
p403
g2
((lp404
S''
aVPML body
p405
aVendosome
p406
aVinsoluble fraction
p407
aVnuclear matrix
p408
aVnucleoplasm
p409
aVcytoplasm
p410
aVintracellular
p411
aVendoplasmic reticulum
p412
aVcytosol
p413
aVnucleolus
p414
aVnucleus
p415
aVnuclear membrane
p416
aVmembrane
p417
aVextrinsic to endoplasmic reticulum membrane
p418
aVearly endosome membrane
p419
atRp420
sS'55269'
p421
g2
((lp422
S''
aVnucleolus
p423
aVnuclear matrix
p424
aVnucleoplasm
p425
aVcytoplasm
p426
aVnucleus
p427
aVparaspeckles
p428
atRp429
sS'10656'
p430
g2
((lp431
S''
aVnucleus
p432
atRp433
sS'54765'
p434
g2
((lp435
S''
aVintracellular
p436
atRp437
sS'79576'
p438
g2
((lp439
S''
aVcytoplasm
p440
aVnucleus
p441
atRp442
sS'151613'
p443
g2
((lp444
S''
atRp445
sS'81565'
p446
g2
((lp447
Vkinetochore
p448
aVchromosome, centromeric region
p449
aVnuclear envelope
p450
aVcytosol
p451
aVcytoplasm
p452
aVkinesin complex
p453
aVcondensed chromosome kinetochore
p454
aVmicrotubule organizing center
p455
aVaxon
p456
aVmicrotubule
p457
aVmicrotubule associated complex
p458
aVcytoskeleton
p459
aVcell body
p460
aVspindle
p461
aVcell leading edge
p462
aVcentrosome
p463
aVchromosome
p464
atRp465
sS'9877'
p466
g2
((lp467
S''
atRp468
sS'339745'
p469
g2
((lp470
S''
aVnucleus
p471
atRp472
sS'51631'
p473
g2
((lp474
S''
atRp475
sS'151871'
p476
g2
((lp477
S''
aVnucleus
p478
atRp479
sS'7090'
p480
g2
((lp481
S''
aVnucleus
p482
atRp483
sS'84811'
p484
g2
((lp485
S''
aVRES complex
p486
atRp487
sS'4747'
p488
g2
((lp489
S''
aVcytosol
p490
aVneurofilament
p491
aVaxon
p492
aVTSC1-TSC2 complex
p493
aVintermediate filament
p494
atRp495
sS'25983'
p496
g2
((lp497
S''
aVcytoplasm
p498
aVaxon
p499
aVdendrite
p500
aVnucleus
p501
aVfilopodium
p502
aVcell projection
p503
atRp504
sS'54819'
p505
g2
((lp506
S''
atRp507
sS'3104'
p508
g2
((lp509
S''
aVcytoplasm
p510
aVintracellular
p511
aVnucleus
p512
atRp513
sS'55311'
p514
g2
((lp515
S''
aVintracellular
p516
aVnucleus
p517
atRp518
sS'84619'
p519
g2
((lp520
S''
aVnucleus
p521
atRp522
sS'26036'
p523
g2
((lp524
S''
aVintracellular
p525
aVnucleus
p526
atRp527
sS'126133'
p528
g2
((lp529
S''
atRp530
sS'51224'
p531
g2
((lp532
S''
aVnucleus
p533
aVintegral to membrane
p534
atRp535
sS'79643'
p536
g2
((lp537
S''
aVendosome
p538
aVcytosol
p539
aVendosome membrane
p540
aVlate endosome membrane
p541
aVmembrane
p542
atRp543
sS'2623'
p544
g2
((lp545
S''
aVnucleolus
p546
aVnucleoplasm
p547
aVtranscriptional repressor complex
p548
aVnucleus
p549
aVnuclear membrane
p550
aVtranscription factor complex
p551
atRp552
sS'3609'
p553
g2
((lp554
S''
aVnucleolus
p555
aVribonucleoprotein complex
p556
aVcytoplasm
p557
aVintracellular
p558
aVnucleus
p559
aVmitochondrion
p560
atRp561
sS'55272'
p562
g2
((lp563
S''
aVribonucleoprotein complex
p564
aVnucleolus
p565
aVnucleus
p566
atRp567
sS'8379'
p568
g2
((lp569
Vkinetochore
p570
aVchromosome, centromeric region
p571
aS''
aVcytoskeleton
p572
aVcytosol
p573
aVcytoplasm
p574
aVcondensed chromosome kinetochore
p575
aVmicrotubule organizing center
p576
aVnucleus
p577
aVnuclear pore
p578
aVmitochondrion
p579
aVspindle
p580
aVactin cytoskeleton
p581
aVcentrosome
p582
aVchromosome
p583
atRp584
sS'6613'
p585
g2
((lp586
S''
aVnucleus
p587
atRp588
sS'83861'
p589
g2
((lp590
S''
atRp591
sS'84823'
p592
g2
((lp593
S''
aVlamin filament
p594
aVnuclear inner membrane
p595
aVnucleus
p596
aVmembrane
p597
aVnuclear lamina
p598
aVintermediate filament
p599
atRp600
sS'23435'
p601
g2
((lp602
S''
aVnucleus
p603
atRp604
sS'200845'
p605
g2
((lp606
S''
atRp607
sS'1912'
p608
g2
((lp609
S''
aVPcG protein complex
p610
aVnucleus
p611
aVPRC1 complex
p612
atRp613
sS'55783'
p614
g2
((lp615
S''
aVintegral to membrane
p616
aVmembrane
p617
atRp618
sS'143384'
p619
g2
((lp620
S''
aVcullin-RING ubiquitin ligase complex
p621
atRp622
sS'129807'
p623
g2
((lp624
S''
aVlysosomal lumen
p625
aVlysosome
p626
aVorganelle inner membrane
p627
aVmembrane
p628
aVmitochondrion
p629
atRp630
sS'55068'
p631
g2
((lp632
S''
aVextracellular space
p633
aVextracellular regio
p634
aVplasma membrane
p635
aVmembrane
p636
atRp637
sS'10921'
p638
g2
((lp639
S''
aVnucleoplasm
p640
aVcytoplasm
p641
aVnuclear speck
p642
aVcytosol
p643
aVnucleus
p644
aVexon-exon junction complex
p645
atRp646
sS'55147'
p647
g2
((lp648
S''
aVnucleus
p649
atRp650
sS'283899'
p651
g2
((lp652
S''
aVIno80 complex
p653
aVnucleolus
p654
aVnucleus
p655
atRp656
sS'2355'
p657
g2
((lp658
S''
aVnucleus
p659
atRp660
sS'54980'
p661
g2
((lp662
S''
atRp663
sS'57018'
p664
g2
((lp665
S''
aVnucleus
p666
aVnuclear speck
p667
atRp668
sS'202559'
p669
g2
((lp670
S''
aVnucleus
p671
atRp672
sS'79654'
p673
g2
((lp674
S''
aVcytoplasm
p675
aVintracellular
p676
aVnucleus
p677
aVperinuclear region of cytoplasm
p678
atRp679
sS'79091'
p680
g2
((lp681
S''
atRp682
sS'57541'
p683
g2
((lp684
S''
aVintracellular
p685
aVnucleus
p686
atRp687
sS'143684'
p688
g2
((lp689
S''
atRp690
sS'10474'
p691
g2
((lp692
S''
aVAda2/Gcn5/Ada3 transcription activator complex
p693
aVSTAGA complex
p694
aVintracellular
p695
aVnucleus
p696
aVtranscription factor TFTC complex
p697
atRp698
sS'9753'
p699
g2
((lp700
S''
aVintracellular
p701
aVnucleus
p702
atRp703
sS'1196'
p704
g2
((lp705
S''
aVnucleus
p706
aVnuclear speck
p707
atRp708
sS'6629'
p709
g2
((lp710
S''
aVribonucleoprotein complex
p711
aVcatalytic step 2 spliceosome
p712
aVnucleoplasm
p713
aVU2 snRNP
p714
aVspliceosomal complex
p715
aVnucleus
p716
atRp717
sS'84838'
p718
g2
((lp719
S''
aVnuclear body
p720
aVintracellular
p721
aVnucleus
p722
atRp723
sS'81788'
p724
g2
((lp725
S''
atRp726
sS'24144'
p727
g2
((lp728
S''
aVcatalytic step 2 spliceosome
p729
aVcytoplasm
p730
aVspliceosomal complex
p731
aVnuclear speck
p732
aVnucleus
p733
aVproteinaceous extracellular matrix
p734
atRp735
sS'58155'
p736
g2
((lp737
S''
aVnucleus
p738
aVspliceosomal complex
p739
atRp740
sS'5450'
p741
g2
((lp742
S''
aVnucleus
p743
atRp744
sS'4001'
p745
g2
((lp746
S''
aVnuclear envelope
p747
aVlamin filament
p748
aVnuclear matrix
p749
aVnucleoplasm
p750
aVmembrane
p751
aVnucleus
p752
aVnuclear inner membrane
p753
aVintermediate filament
p754
atRp755
sS'11179'
p756
g2
((lp757
S''
aVintracellular
p758
aVnucleus
p759
atRp760
sS'9810'
p761
g2
((lp762
S''
aVsynaptosome
p763
aVHULC complex
p764
aVcytoplasm
p765
aVprotein complex
p766
aVnucleus
p767
aVplasma membrane
p768
aVubiquitin ligase complex
p769
atRp770
sS'79848'
p771
g2
((lp772
S''
aVmicrotubule
p773
aVcytoplasm
p774
aVcytoskeleton
p775
aVmicrotubule organizing center
p776
aVcentrosome
p777
aVspindle
p778
aVspindle pole
p779
atRp780
sS'339834'
p781
g2
((lp782
S''
atRp783
sS'84248'
p784
g2
((lp785
Vnucleoplasm
p786
aS''
aVnucleus
p787
aVnuclear speck
p788
atRp789
sS'8061'
p790
g2
((lp791
S''
aVsynaptosome
p792
aVcytosol
p793
aVmicrosome
p794
aVpresynaptic membrane
p795
aVnucleus
p796
atRp797
sS'51083'
p798
g2
((lp799
S''
aVGolgi apparatus
p800
aVextracellular region
p801
aVcytoplasm
p802
aVcellular_component
p803
aVsecretory granule
p804
atRp805
sS'51329'
p806
g2
((lp807
S''
aVnucleus
p808
atRp809
sS'7746'
p810
g2
((lp811
S''
aVintracellular
p812
aVnucleus
p813
atRp814
sS'22890'
p815
g2
((lp816
S''
aVintracellular
p817
aVnucleus
p818
atRp819
sS'57410'
p820
g2
((lp821
S''
aVendoplasmic reticulum-Golgi intermediate compartment
p822
aVGolgi apparatus
p823
aVCOPI vesicle coat
p824
aVcytoplasm
p825
aVcis-Golgi network
p826
aVmicrotubule organizing center
p827
aVnucleus
p828
aVcytoskeleton
p829
atRp830
sS'8161'
p831
g2
((lp832
Vnucleoplasm
p833
aVCajal body
p834
aVnucleolus
p835
aVnucleus
p836
aS''
atRp837
sS'9679'
p838
g2
((lp839
S''
aVcellular_component
p840
atRp841
sS'129831'
p842
g2
((lp843
S''
aVcytoplasm
p844
aVnucleus
p845
atRp846
sS'55840'
p847
g2
((lp848
S''
aVnucleus
p849
aVnuclear speck
p850
atRp851
sS'222698'
p852
g2
((lp853
S''
atRp854
sS'164592'
p855
g2
((lp856
S''
atRp857
sS'9441'
p858
g2
((lp859
Vnucleoplasm
p860
aS''
aVnucleus
p861
aVmediator complex
p862
atRp863
sS'11047'
p864
g2
((lp865
S''
aVcytoplasm
p866
aVmembrane fraction
p867
aVproteasome complex
p868
aVnucleus
p869
aVintegral to plasma membrane
p870
aVplasma membrane
p871
atRp872
sS'6638'
p873
g2
((lp874
S''
aVribonucleoprotein complex
p875
aVnucleus
p876
aVspliceosomal complex
p877
aVsmall nuclear ribonucleoprotein complex
p878
atRp879
sS'7572'
p880
g2
((lp881
S''
aVintracellular
p882
aVnucleus
p883
atRp884
sS'129138'
p885
g2
((lp886
S''
aVcytoplasm
p887
aVnucleus
p888
aVmidbody
p889
atRp890
sS'23199'
p891
g2
((lp892
S''
atRp893
sS'84878'
p894
g2
((lp895
S''
aVintracellular
p896
aVnucleus
p897
atRp898
sS'6632'
p899
g2
((lp900
S''
aVnucleoplasm
p901
aVcytoplasm
p902
aVspliceosomal complex
p903
aVU12-type spliceosomal complex
p904
aVcytosol
p905
aVnucleus
p906
atRp907
sS'6635'
p908
g2
((lp909
S''
aVribonucleoprotein complex
p910
aVsmall nuclear ribonucleoprotein complex
p911
aVnucleoplasm
p912
aVcatalytic step 2 spliceosome
p913
aVspliceosomal complex
p914
aVU12-type spliceosomal complex
p915
aVU7 snRNP
p916
aVnucleus
p917
aVcytosol
p918
atRp919
sS'6637'
p920
g2
((lp921
S''
aVribonucleoprotein complex
p922
aVsmall nuclear ribonucleoprotein complex
p923
aVnucleoplasm
p924
aVcatalytic step 2 spliceosome
p925
aVspliceosomal complex
p926
aVU12-type spliceosomal complex
p927
aVU7 snRNP
p928
aVnucleus
p929
aVcytosol
p930
atRp931
sS'85376'
p932
g2
((lp933
S''
atRp934
sS'4154'
p935
g2
((lp936
S''
aVcytoplasm
p937
aVcytoplasmic stress granule
p938
aVnucleus
p939
atRp940
sS'9295'
p941
g2
((lp942
Vnucleoplasm
p943
aS''
aVnucleus
p944
atRp945
sS'4665'
p946
g2
((lp947
S''
aVnucleus
p948
atRp949
sS'7586'
p950
g2
((lp951
Vmitochondrion
p952
aS''
aVintracellular
p953
aVnucleus
p954
atRp955
sS'27296'
p956
g2
((lp957
S''
aVcytoplasm
p958
aVintracellular
p959
aVnucleus
p960
atRp961
sS'2353'
p962
g2
((lp963
Vhost cell nucleus
p964
aS''
atRp965
sS'29108'
p966
g2
((lp967
S''
aVcytosol
p968
aVcytoplasm
p969
aVintracellular
p970
aVcytoplasmic part
p971
aVIkappaB kinase complex
p972
atRp973
sS'64949'
p974
g2
((lp975
Vmitochondrion
p976
aS''
aVribosome
p977
aVmitochondrial small ribosomal subunit
p978
aVribonucleoprotein complex
p979
atRp980
sS'8761'
p981
g2
((lp982
S''
aVcytoplasm
p983
aVribonucleoprotein complex
p984
atRp985
sS'5932'
p986
g2
((lp987
S''
aVnucleus
p988
aVtranscriptional repressor complex
p989
atRp990
sS'83759'
p991
g2
((lp992
S''
aVnucleolus
p993
aVnucleus
p994
atRp995
sS'54904'
p996
g2
((lp997
S''
aVnucleus
p998
aVchromosome
p999
atRp1000
s.